target datalayout = "e-m:e-p270:32:32-p271:32:32-p272:64:64-i64:64-i128:128-f80:128-n8:16:32:64-S128"
target triple = "x86_64-pc-linux-gnu"

%union.PJ_COORD = type { [4 x double] }
%struct.PJconsts = type { ptr, ptr, ptr, ptr, ptr, ptr, ptr, ptr, ptr, ptr, ptr, ptr, i32, ptr, ptr, ptr, ptr, ptr, ptr, ptr, ptr, double, double, double, double, double, double, double, double, double, double, double, double, double, double, double, double, double, double, double, double, double, double, i32, i32, i32, i32, i32, i32, i32, i32, i32, i32, i32, ptr, ptr, ptr, ptr, ptr, ptr, double, double, double, double, double, double, double, double, double, double, double, i32, [7 x double], i32, ptr, ptr, double, double, i32, [4 x i8], %"class.std::shared_ptr", i8, double, i8, %"class.std::__cxx11::basic_string", %"class.std::__cxx11::basic_string", %"class.std::__cxx11::basic_string", i8, %"class.std::vector", i32, %"class.std::vector.3", i32, i8, i8, i8, ptr }
%"class.std::shared_ptr" = type { %"class.std::__shared_ptr" }
%"class.std::__shared_ptr" = type { ptr, %"class.std::__shared_count" }
%"class.std::__shared_count" = type { ptr }
%"class.std::__cxx11::basic_string" = type { %"struct.std::__cxx11::basic_string<char>::_Alloc_hider", i64, %union.anon }
%"struct.std::__cxx11::basic_string<char>::_Alloc_hider" = type { ptr }
%union.anon = type { i64, [8 x i8] }
%"class.std::vector" = type { %"struct.std::_Vector_base" }
%"struct.std::_Vector_base" = type { %"struct.std::_Vector_base<osgeo::proj::operation::GridDescription, std::allocator<osgeo::proj::operation::GridDescription>>::_Vector_impl" }
%"struct.std::_Vector_base<osgeo::proj::operation::GridDescription, std::allocator<osgeo::proj::operation::GridDescription>>::_Vector_impl" = type { %"struct.std::_Vector_base<osgeo::proj::operation::GridDescription, std::allocator<osgeo::proj::operation::GridDescription>>::_Vector_impl_data" }
%"struct.std::_Vector_base<osgeo::proj::operation::GridDescription, std::allocator<osgeo::proj::operation::GridDescription>>::_Vector_impl_data" = type { ptr, ptr, ptr }
%"class.std::vector.3" = type { %"struct.std::_Vector_base.4" }
%"struct.std::_Vector_base.4" = type { %"struct.std::_Vector_base<PJCoordOperation, std::allocator<PJCoordOperation>>::_Vector_impl" }
%"struct.std::_Vector_base<PJCoordOperation, std::allocator<PJCoordOperation>>::_Vector_impl" = type { %"struct.std::_Vector_base<PJCoordOperation, std::allocator<PJCoordOperation>>::_Vector_impl_data" }
%"struct.std::_Vector_base<PJCoordOperation, std::allocator<PJCoordOperation>>::_Vector_impl_data" = type { ptr, ptr, ptr }
%struct.PJ_LPZ = type { double, double, double }

; Function Attrs: mustprogress uwtable
define void @proj_geod(ptr dead_on_unwind noalias writable sret(%union.PJ_COORD) align 8 %0, ptr noundef %1, ptr noundef byval(%union.PJ_COORD) align 8 %2, ptr noundef byval(%union.PJ_COORD) align 8 %3) #0 {
  %5 = alloca ptr, align 8
  %6 = alloca %union.PJ_COORD, align 8
  %7 = alloca i32, align 4
  store ptr %1, ptr %5, align 8, !tbaa !3
  call void @llvm.lifetime.start.p0(i64 32, ptr %6) #6
  %8 = load ptr, ptr %5, align 8, !tbaa !3
  %9 = getelementptr inbounds nuw %struct.PJconsts, ptr %8, i32 0, i32 10
  %10 = load ptr, ptr %9, align 8, !tbaa !8
  %11 = icmp ne ptr %10, null
  br i1 %11, label %13, label %12

12:                                               ; preds = %4
  call void @_Z16proj_coord_errorv(ptr dead_on_unwind writable sret(%union.PJ_COORD) align 8 %0)
  store i32 1, ptr %7, align 4
  br label %38

13:                                               ; preds = %4
  %14 = load ptr, ptr %5, align 8, !tbaa !3
  %15 = getelementptr inbounds nuw %struct.PJconsts, ptr %14, i32 0, i32 10
  %16 = load ptr, ptr %15, align 8, !tbaa !8
  %17 = getelementptr inbounds nuw %struct.PJ_LPZ, ptr %2, i32 0, i32 1
  %18 = load double, ptr %17, align 8, !tbaa !37
  %19 = fmul double %18, 1.800000e+02
  %20 = fdiv double %19, 0x400921FB54442D18
  %21 = getelementptr inbounds nuw %struct.PJ_LPZ, ptr %2, i32 0, i32 0
  %22 = load double, ptr %21, align 8, !tbaa !37
  %23 = fmul double %22, 1.800000e+02
  %24 = fdiv double %23, 0x400921FB54442D18
  %25 = getelementptr inbounds nuw %struct.PJ_LPZ, ptr %3, i32 0, i32 1
  %26 = load double, ptr %25, align 8, !tbaa !37
  %27 = fmul double %26, 1.800000e+02
  %28 = fdiv double %27, 0x400921FB54442D18
  %29 = getelementptr inbounds nuw %struct.PJ_LPZ, ptr %3, i32 0, i32 0
  %30 = load double, ptr %29, align 8, !tbaa !37
  %31 = fmul double %30, 1.800000e+02
  %32 = fdiv double %31, 0x400921FB54442D18
  %33 = getelementptr inbounds [4 x double], ptr %6, i64 0, i64 0
  %34 = getelementptr inbounds [4 x double], ptr %6, i64 0, i64 0
  %35 = getelementptr inbounds double, ptr %34, i64 1
  %36 = getelementptr inbounds [4 x double], ptr %6, i64 0, i64 0
  %37 = getelementptr inbounds double, ptr %36, i64 2
  call void @geod_inverse(ptr noundef %16, double noundef %20, double noundef %24, double noundef %28, double noundef %32, ptr noundef %33, ptr noundef %35, ptr noundef %37)
  call void @llvm.memcpy.p0.p0.i64(ptr align 8 %0, ptr align 8 %6, i64 32, i1 false), !tbaa.struct !38
  store i32 1, ptr %7, align 4
  br label %38

38:                                               ; preds = %13, %12
  call void @llvm.lifetime.end.p0(i64 32, ptr %6) #6
  ret void
}