; Function Attrs: mustprogress uwtable
define void @proj_geod(ptr dead_on_unwind noalias writable sret(%union.PJ_COORD) align 8 %0, ptr noundef readonly captures(none) %1, ptr noundef readonly byval(%union.PJ_COORD) align 8 captures(none) %2, ptr noundef readonly byval(%union.PJ_COORD) align 8 captures(none) %3) local_unnamed_addr #0 {
  %5 = alloca %union.PJ_COORD, align 8
  call void @llvm.lifetime.start.p0(i64 32, ptr nonnull %5) #6
  %6 = getelementptr inbounds nuw i8, ptr %1, i64 80
  %7 = load ptr, ptr %6, align 8, !tbaa !3
  %.not = icmp eq ptr %7, null
  br i1 %.not, label %8, label %9

8:                                                ; preds = %4
  tail call void @_Z16proj_coord_errorv(ptr dead_on_unwind writable sret(%union.PJ_COORD) align 8 %0)
  br label %26

9:                                                ; preds = %4
  %10 = getelementptr inbounds nuw i8, ptr %2, i64 8
  %11 = load double, ptr %10, align 8, !tbaa !36
  %12 = fmul double %11, 1.800000e+02
  %13 = fdiv double %12, 0x400921FB54442D18
  %14 = load double, ptr %2, align 8, !tbaa !36
  %15 = fmul double %14, 1.800000e+02
  %16 = fdiv double %15, 0x400921FB54442D18
  %17 = getelementptr inbounds nuw i8, ptr %3, i64 8
  %18 = load double, ptr %17, align 8, !tbaa !36
  %19 = fmul double %18, 1.800000e+02
  %20 = fdiv double %19, 0x400921FB54442D18
  %21 = load double, ptr %3, align 8, !tbaa !36
  %22 = fmul double %21, 1.800000e+02
  %23 = fdiv double %22, 0x400921FB54442D18
  %24 = getelementptr inbounds nuw i8, ptr %5, i64 8
  %25 = getelementptr inbounds nuw i8, ptr %5, i64 16
  call void @geod_inverse(ptr noundef nonnull %7, double noundef %13, double noundef %16, double noundef %20, double noundef %23, ptr noundef nonnull %5, ptr noundef nonnull %24, ptr noundef nonnull %25)
  call void @llvm.memcpy.p0.p0.i64(ptr noundef nonnull align 8 dereferenceable(32) %0, ptr noundef nonnull align 8 dereferenceable(32) %5, i64 32, i1 false), !tbaa.struct !37
  br label %26

26:                                               ; preds = %9, %8
  call void @llvm.lifetime.end.p0(i64 32, ptr nonnull %5) #6
  ret void
}